; Function Attrs: nounwind uwtable
define dso_local range(i32 -30, 1) i32 @archive_write_set_format_cpio_bin(ptr noundef %0) local_unnamed_addr #0 {
  %2 = tail call i32 @__archive_check_magic(ptr noundef %0, i32 noundef -1329217314, i32 noundef 1, ptr noundef nonnull @.str) #9
  %3 = icmp eq i32 %2, -30
  br i1 %3, label %archive_write_set_format_cpio_binary.exit, label %4

4:                                                ; preds = %1
  %5 = getelementptr inbounds nuw i8, ptr %0, i64 312
  %6 = load ptr, ptr %5, align 8
  %.not.i = icmp eq ptr %6, null
  br i1 %.not.i, label %9, label %7

7:                                                ; preds = %4
  %8 = tail call i32 %6(ptr noundef nonnull %0) #9
  br label %9

9:                                                ; preds = %7, %4
  %10 = tail call noalias dereferenceable_or_null(64) ptr @calloc(i64 noundef 1, i64 noundef 64) #10
  %11 = icmp eq ptr %10, null
  br i1 %11, label %12, label %13

12:                                               ; preds = %9
  tail call void (ptr, i32, ptr, ...) @archive_set_error(ptr noundef nonnull %0, i32 noundef 12, ptr noundef nonnull @.str.1) #9
  br label %archive_write_set_format_cpio_binary.exit

13:                                               ; preds = %9
  %14 = getelementptr inbounds nuw i8, ptr %0, i64 248
  store ptr %10, ptr %14, align 8
  %15 = getelementptr inbounds nuw i8, ptr %0, i64 256
  store ptr @.str.2, ptr %15, align 8
  %16 = getelementptr inbounds nuw i8, ptr %0, i64 272
  store ptr @archive_write_binary_options, ptr %16, align 8
  %17 = getelementptr inbounds nuw i8, ptr %0, i64 288
  store ptr @archive_write_binary_header, ptr %17, align 8
  %18 = getelementptr inbounds nuw i8, ptr %0, i64 296
  store ptr @archive_write_binary_data, ptr %18, align 8
  %19 = getelementptr inbounds nuw i8, ptr %0, i64 280
  store ptr @archive_write_binary_finish_entry, ptr %19, align 8
  %20 = getelementptr inbounds nuw i8, ptr %0, i64 304
  store ptr @archive_write_binary_close, ptr %20, align 8
  store ptr @archive_write_binary_free, ptr %5, align 8
  %21 = getelementptr inbounds nuw i8, ptr %0, i64 16
  store i32 65538, ptr %21, align 8
  %22 = getelementptr inbounds nuw i8, ptr %0, i64 24
  store ptr @.str.4, ptr %22, align 8
  br label %archive_write_set_format_cpio_binary.exit

archive_write_set_format_cpio_binary.exit:        ; preds = %1, %12, %13
  %.0.i = phi i32 [ -30, %12 ], [ -30, %1 ], [ 0, %13 ]
  ret i32 %.0.i
}